target datalayout = "e-m:e-p270:32:32-p271:32:32-p272:64:64-i64:64-i128:128-f80:128-n8:16:32:64-S128"
target triple = "x86_64-pc-linux-gnu"

%"class.o3dgc::Adaptive_Data_Model" = type <{ ptr, ptr, ptr, i32, i32, i32, i32, i32, i32, i32, [4 x i8] }>

@.str.11 = private unnamed_addr constant [31 x i8] c"invalid number of data symbols\00", align 1

; Function Attrs: mustprogress nounwind uwtable
define hidden void @_ZN5o3dgc19Adaptive_Data_Model5resetEv(ptr noundef nonnull align 8 dereferenceable(52) %0) #3 align 2 {
  %2 = alloca ptr, align 8
  %3 = alloca i32, align 4
  store ptr %0, ptr %2, align 8
  %4 = load ptr, ptr %2, align 8
  %5 = getelementptr inbounds nuw %"class.o3dgc::Adaptive_Data_Model", ptr %4, i32 0, i32 6
  %6 = load i32, ptr %5, align 4
  %7 = icmp eq i32 %6, 0
  br i1 %7, label %8, label %9

8:                                                ; preds = %1
  br label %36

9:                                                ; preds = %1
  %10 = getelementptr inbounds nuw %"class.o3dgc::Adaptive_Data_Model", ptr %4, i32 0, i32 3
  store i32 0, ptr %10, align 8
  %11 = getelementptr inbounds nuw %"class.o3dgc::Adaptive_Data_Model", ptr %4, i32 0, i32 6
  %12 = load i32, ptr %11, align 4
  %13 = getelementptr inbounds nuw %"class.o3dgc::Adaptive_Data_Model", ptr %4, i32 0, i32 4
  store i32 %12, ptr %13, align 4
  call void @llvm.lifetime.start.p0(i64 4, ptr %3) #12
  store i32 0, ptr %3, align 4
  br label %14

14:                                               ; preds = %26, %9
  %15 = load i32, ptr %3, align 4
  %16 = getelementptr inbounds nuw %"class.o3dgc::Adaptive_Data_Model", ptr %4, i32 0, i32 6
  %17 = load i32, ptr %16, align 4
  %18 = icmp ult i32 %15, %17
  br i1 %18, label %20, label %19

19:                                               ; preds = %14
  call void @llvm.lifetime.end.p0(i64 4, ptr %3) #12
  br label %29

20:                                               ; preds = %14
  %21 = getelementptr inbounds nuw %"class.o3dgc::Adaptive_Data_Model", ptr %4, i32 0, i32 1
  %22 = load ptr, ptr %21, align 8
  %23 = load i32, ptr %3, align 4
  %24 = zext i32 %23 to i64
  %25 = getelementptr inbounds nuw i32, ptr %22, i64 %24
  store i32 1, ptr %25, align 4
  br label %26

26:                                               ; preds = %20
  %27 = load i32, ptr %3, align 4
  %28 = add i32 %27, 1
  store i32 %28, ptr %3, align 4
  br label %14, !llvm.loop !25

29:                                               ; preds = %19
  call void @_ZN5o3dgc19Adaptive_Data_Model6updateEb(ptr noundef nonnull align 8 dereferenceable(52) %4, i1 noundef zeroext false)
  %30 = getelementptr inbounds nuw %"class.o3dgc::Adaptive_Data_Model", ptr %4, i32 0, i32 6
  %31 = load i32, ptr %30, align 4
  %32 = add i32 %31, 6
  %33 = lshr i32 %32, 1
  %34 = getelementptr inbounds nuw %"class.o3dgc::Adaptive_Data_Model", ptr %4, i32 0, i32 4
  store i32 %33, ptr %34, align 4
  %35 = getelementptr inbounds nuw %"class.o3dgc::Adaptive_Data_Model", ptr %4, i32 0, i32 5
  store i32 %33, ptr %35, align 8
  br label %36

36:                                               ; preds = %29, %8
  ret void
}

; Function Attrs: mustprogress uwtable
define hidden void @_ZN5o3dgc19Adaptive_Data_Model12set_alphabetEj(ptr noundef nonnull align 8 dereferenceable(52) %0, i32 noundef %1) #0 align 2 {
  %3 = alloca ptr, align 8
  %4 = alloca i32, align 4
  %5 = alloca i32, align 4
  store ptr %0, ptr %3, align 8
  store i32 %1, ptr %4, align 4
  %6 = load ptr, ptr %3, align 8
  %7 = load i32, ptr %4, align 4
  %8 = icmp ult i32 %7, 2
  br i1 %8, label %12, label %9

9:                                                ; preds = %2
  %10 = load i32, ptr %4, align 4
  %11 = icmp ugt i32 %10, 2048
  br i1 %11, label %12, label %13

12:                                               ; preds = %9, %2
  call void @_ZN5o3dgcL8AC_ErrorEPKc(ptr noundef @.str.11) #13
  unreachable

13:                                               ; preds = %9
  %14 = getelementptr inbounds nuw %"class.o3dgc::Adaptive_Data_Model", ptr %6, i32 0, i32 6
  %15 = load i32, ptr %14, align 4
  %16 = load i32, ptr %4, align 4
  %17 = icmp ne i32 %15, %16
  br i1 %17, label %18, label %95

18:                                               ; preds = %13
  %19 = load i32, ptr %4, align 4
  %20 = getelementptr inbounds nuw %"class.o3dgc::Adaptive_Data_Model", ptr %6, i32 0, i32 6
  store i32 %19, ptr %20, align 4
  %21 = getelementptr inbounds nuw %"class.o3dgc::Adaptive_Data_Model", ptr %6, i32 0, i32 6
  %22 = load i32, ptr %21, align 4
  %23 = sub i32 %22, 1
  %24 = getelementptr inbounds nuw %"class.o3dgc::Adaptive_Data_Model", ptr %6, i32 0, i32 7
  store i32 %23, ptr %24, align 8
  %25 = getelementptr inbounds nuw %"class.o3dgc::Adaptive_Data_Model", ptr %6, i32 0, i32 0
  %26 = load ptr, ptr %25, align 8
  %27 = icmp eq ptr %26, null
  br i1 %27, label %29, label %28

28:                                               ; preds = %18
  call void @_ZdaPv(ptr noundef %26) #14
  br label %29

29:                                               ; preds = %28, %18
  %30 = getelementptr inbounds nuw %"class.o3dgc::Adaptive_Data_Model", ptr %6, i32 0, i32 6
  %31 = load i32, ptr %30, align 4
  %32 = icmp ugt i32 %31, 16
  br i1 %32, label %33, label %73

33:                                               ; preds = %29
  call void @llvm.lifetime.start.p0(i64 4, ptr %5) #12
  store i32 3, ptr %5, align 4
  br label %34

34:                                               ; preds = %41, %33
  %35 = getelementptr inbounds nuw %"class.o3dgc::Adaptive_Data_Model", ptr %6, i32 0, i32 6
  %36 = load i32, ptr %35, align 4
  %37 = load i32, ptr %5, align 4
  %38 = add i32 %37, 2
  %39 = shl i32 1, %38
  %40 = icmp ugt i32 %36, %39
  br i1 %40, label %41, label %44

41:                                               ; preds = %34
  %42 = load i32, ptr %5, align 4
  %43 = add i32 %42, 1
  store i32 %43, ptr %5, align 4
  br label %34, !llvm.loop !24

44:                                               ; preds = %34
  %45 = load i32, ptr %5, align 4
  %46 = shl i32 1, %45
  %47 = getelementptr inbounds nuw %"class.o3dgc::Adaptive_Data_Model", ptr %6, i32 0, i32 8
  store i32 %46, ptr %47, align 4
  %48 = load i32, ptr %5, align 4
  %49 = sub i32 15, %48
  %50 = getelementptr inbounds nuw %"class.o3dgc::Adaptive_Data_Model", ptr %6, i32 0, i32 9
  store i32 %49, ptr %50, align 8
  %51 = getelementptr inbounds nuw %"class.o3dgc::Adaptive_Data_Model", ptr %6, i32 0, i32 6
  %52 = load i32, ptr %51, align 4
  %53 = mul i32 2, %52
  %54 = getelementptr inbounds nuw %"class.o3dgc::Adaptive_Data_Model", ptr %6, i32 0, i32 8
  %55 = load i32, ptr %54, align 4
  %56 = add i32 %53, %55
  %57 = add i32 %56, 2
  %58 = zext i32 %57 to i64
  %59 = call { i64, i1 } @llvm.umul.with.overflow.i64(i64 %58, i64 4)
  %60 = extractvalue { i64, i1 } %59, 1
  %61 = extractvalue { i64, i1 } %59, 0
  %62 = select i1 %60, i64 -1, i64 %61
  %63 = call noalias noundef nonnull ptr @_Znam(i64 noundef %62) #15
  %64 = getelementptr inbounds nuw %"class.o3dgc::Adaptive_Data_Model", ptr %6, i32 0, i32 0
  store ptr %63, ptr %64, align 8
  %65 = getelementptr inbounds nuw %"class.o3dgc::Adaptive_Data_Model", ptr %6, i32 0, i32 0
  %66 = load ptr, ptr %65, align 8
  %67 = getelementptr inbounds nuw %"class.o3dgc::Adaptive_Data_Model", ptr %6, i32 0, i32 6
  %68 = load i32, ptr %67, align 4
  %69 = mul i32 2, %68
  %70 = zext i32 %69 to i64
  %71 = getelementptr inbounds nuw i32, ptr %66, i64 %70
  %72 = getelementptr inbounds nuw %"class.o3dgc::Adaptive_Data_Model", ptr %6, i32 0, i32 2
  store ptr %71, ptr %72, align 8
  call void @llvm.lifetime.end.p0(i64 4, ptr %5) #12
  br label %87

73:                                               ; preds = %29
  %74 = getelementptr inbounds nuw %"class.o3dgc::Adaptive_Data_Model", ptr %6, i32 0, i32 2
  store ptr null, ptr %74, align 8
  %75 = getelementptr inbounds nuw %"class.o3dgc::Adaptive_Data_Model", ptr %6, i32 0, i32 9
  store i32 0, ptr %75, align 8
  %76 = getelementptr inbounds nuw %"class.o3dgc::Adaptive_Data_Model", ptr %6, i32 0, i32 8
  store i32 0, ptr %76, align 4
  %77 = getelementptr inbounds nuw %"class.o3dgc::Adaptive_Data_Model", ptr %6, i32 0, i32 6
  %78 = load i32, ptr %77, align 4
  %79 = mul i32 2, %78
  %80 = zext i32 %79 to i64
  %81 = call { i64, i1 } @llvm.umul.with.overflow.i64(i64 %80, i64 4)
  %82 = extractvalue { i64, i1 } %81, 1
  %83 = extractvalue { i64, i1 } %81, 0
  %84 = select i1 %82, i64 -1, i64 %83
  %85 = call noalias noundef nonnull ptr @_Znam(i64 noundef %84) #15
  %86 = getelementptr inbounds nuw %"class.o3dgc::Adaptive_Data_Model", ptr %6, i32 0, i32 0
  store ptr %85, ptr %86, align 8
  br label %87

87:                                               ; preds = %73, %44
  %88 = getelementptr inbounds nuw %"class.o3dgc::Adaptive_Data_Model", ptr %6, i32 0, i32 0
  %89 = load ptr, ptr %88, align 8
  %90 = getelementptr inbounds nuw %"class.o3dgc::Adaptive_Data_Model", ptr %6, i32 0, i32 6
  %91 = load i32, ptr %90, align 4
  %92 = zext i32 %91 to i64
  %93 = getelementptr inbounds nuw i32, ptr %89, i64 %92
  %94 = getelementptr inbounds nuw %"class.o3dgc::Adaptive_Data_Model", ptr %6, i32 0, i32 1
  store ptr %93, ptr %94, align 8
  br label %95

95:                                               ; preds = %87, %13
  call void @_ZN5o3dgc19Adaptive_Data_Model5resetEv(ptr noundef nonnull align 8 dereferenceable(52) %6)
  ret void
}