; Function Attrs: mustprogress uwtable
define hidden void @_ZN5o3dgc19Adaptive_Data_Model12set_alphabetEj(ptr noundef nonnull align 8 captures(none) dereferenceable(52) %0, i32 noundef %1) local_unnamed_addr #5 align 2 {
  %3 = add i32 %1, -2049
  %or.cond = icmp ult i32 %3, -2047
  br i1 %or.cond, label %4, label %5

4:                                                ; preds = %2
  tail call fastcc void @_ZN5o3dgcL8AC_ErrorEPKc(ptr noundef nonnull @.str.11) #16
  unreachable

5:                                                ; preds = %2
  %6 = getelementptr inbounds nuw i8, ptr %0, i64 36
  %7 = load i32, ptr %6, align 4
  %.not = icmp eq i32 %7, %1
  br i1 %.not, label %.lr.ph.i, label %8

8:                                                ; preds = %5
  store i32 %1, ptr %6, align 4
  %9 = add nsw i32 %1, -1
  %10 = getelementptr inbounds nuw i8, ptr %0, i64 40
  store i32 %9, ptr %10, align 8
  %11 = load ptr, ptr %0, align 8
  %12 = icmp eq ptr %11, null
  br i1 %12, label %14, label %13

13:                                               ; preds = %8
  tail call void @_ZdaPv(ptr noundef nonnull %11) #17
  %.pre = load i32, ptr %6, align 4
  br label %14

14:                                               ; preds = %13, %8
  %.pr = phi i32 [ %.pre, %13 ], [ %1, %8 ]
  %15 = icmp ugt i32 %.pr, 16
  br i1 %15, label %.preheader, label %36

.preheader:                                       ; preds = %14, %.preheader
  %.0 = phi i32 [ %19, %.preheader ], [ 3, %14 ]
  %16 = add i32 %.0, 2
  %17 = shl nuw i32 1, %16
  %18 = icmp ugt i32 %.pr, %17
  %19 = add i32 %.0, 1
  br i1 %18, label %.preheader, label %.thread, !llvm.loop !22

.thread:                                          ; preds = %.preheader
  %20 = shl nuw i32 1, %.0
  %21 = getelementptr inbounds nuw i8, ptr %0, i64 44
  store i32 %20, ptr %21, align 4
  %22 = sub i32 15, %.0
  %23 = getelementptr inbounds nuw i8, ptr %0, i64 48
  store i32 %22, ptr %23, align 8
  %24 = shl i32 %.pr, 1
  %25 = add i32 %24, 2
  %26 = add i32 %25, %20
  %27 = zext i32 %26 to i64
  %28 = shl nuw nsw i64 %27, 2
  %29 = tail call noalias noundef nonnull ptr @_Znam(i64 noundef %28) #18
  store ptr %29, ptr %0, align 8
  %30 = zext i32 %24 to i64
  %31 = getelementptr inbounds nuw i32, ptr %29, i64 %30
  %32 = getelementptr inbounds nuw i8, ptr %0, i64 16
  store ptr %31, ptr %32, align 8
  %33 = zext i32 %.pr to i64
  %34 = getelementptr inbounds nuw i32, ptr %29, i64 %33
  %35 = getelementptr inbounds nuw i8, ptr %0, i64 8
  store ptr %34, ptr %35, align 8
  br label %.lr.ph.i

36:                                               ; preds = %14
  %37 = getelementptr inbounds nuw i8, ptr %0, i64 16
  store ptr null, ptr %37, align 8
  %38 = getelementptr inbounds nuw i8, ptr %0, i64 48
  store i32 0, ptr %38, align 8
  %39 = getelementptr inbounds nuw i8, ptr %0, i64 44
  store i32 0, ptr %39, align 4
  %40 = shl nuw nsw i32 %.pr, 3
  %41 = zext nneg i32 %40 to i64
  %42 = tail call noalias noundef nonnull ptr @_Znam(i64 noundef %41) #18
  store ptr %42, ptr %0, align 8
  %43 = zext nneg i32 %.pr to i64
  %44 = getelementptr inbounds nuw i32, ptr %42, i64 %43
  %45 = getelementptr inbounds nuw i8, ptr %0, i64 8
  store ptr %44, ptr %45, align 8
  %46 = icmp eq i32 %.pr, 0
  br i1 %46, label %_ZN5o3dgc19Adaptive_Data_Model5resetEv.exit, label %.lr.ph.i

.lr.ph.i:                                         ; preds = %.thread, %5, %36
  %47 = phi i32 [ %.pr, %36 ], [ %1, %5 ], [ %.pr, %.thread ]
  %48 = getelementptr inbounds nuw i8, ptr %0, i64 24
  store i32 0, ptr %48, align 8
  %49 = getelementptr inbounds nuw i8, ptr %0, i64 28
  store i32 %47, ptr %49, align 4
  %50 = getelementptr inbounds nuw i8, ptr %0, i64 8
  br label %55

._crit_edge.i:                                    ; preds = %55
  tail call void @_ZN5o3dgc19Adaptive_Data_Model6updateEb(ptr noundef nonnull align 8 dereferenceable(52) %0, i1 noundef zeroext false)
  %51 = load i32, ptr %6, align 4
  %52 = add i32 %51, 6
  %53 = lshr i32 %52, 1
  store i32 %53, ptr %49, align 4
  %54 = getelementptr inbounds nuw i8, ptr %0, i64 32
  store i32 %53, ptr %54, align 8
  br label %_ZN5o3dgc19Adaptive_Data_Model5resetEv.exit

55:                                               ; preds = %55, %.lr.ph.i
  %indvars.iv.i = phi i64 [ 0, %.lr.ph.i ], [ %indvars.iv.next.i, %55 ]
  %56 = load ptr, ptr %50, align 8
  %57 = getelementptr inbounds nuw i32, ptr %56, i64 %indvars.iv.i
  store i32 1, ptr %57, align 4
  %indvars.iv.next.i = add nuw nsw i64 %indvars.iv.i, 1
  %58 = load i32, ptr %6, align 4
  %59 = zext i32 %58 to i64
  %60 = icmp samesign ult i64 %indvars.iv.next.i, %59
  br i1 %60, label %55, label %._crit_edge.i, !llvm.loop !23

_ZN5o3dgc19Adaptive_Data_Model5resetEv.exit:      ; preds = %36, %._crit_edge.i
  ret void
}